; ModuleID = '37/392.c'
source_filename = "37/392.c"
target datalayout = "e-m:e-p270:32:32-p271:32:32-p272:64:64-i64:64-f80:128-n8:16:32:64-S128"
target triple = "x86_64-pc-linux-gnu"

@.str = private unnamed_addr constant [4 x i8] c"%d\0A\00", align 1
@.str.1 = private unnamed_addr constant [4 x i8] c"%c\0A\00", align 1
@.str.2 = private unnamed_addr constant [3 x i8] c"no\00", align 1

; Function Attrs: noinline nounwind uwtable
define dso_local void @main() #0 {
  %1 = alloca [100005 x i8], align 16
  %2 = alloca i8*, align 8
  %3 = alloca i8*, align 8
  %4 = alloca i32, align 4
  %5 = alloca i32, align 4
  %6 = alloca i32, align 4
  %7 = alloca i32, align 4
  %8 = call i32 (i8*, ...) @__isoc99_scanf(i8* getelementptr inbounds ([4 x i8], [4 x i8]* @.str, i64 0, i64 0), i32* %4)
  store i32 0, i32* %5, align 4
  br label %9

9:                                                ; preds = %83, %0
  %10 = load i32, i32* %5, align 4
  %11 = load i32, i32* %4, align 4
  %12 = icmp slt i32 %10, %11
  br i1 %12, label %13, label %86

13:                                               ; preds = %9
  %14 = getelementptr inbounds [100005 x i8], [100005 x i8]* %1, i64 0, i64 0
  %15 = call i32 (i8*, ...) bitcast (i32 (...)* @gets to i32 (i8*, ...)*)(i8* %14)
  %16 = getelementptr inbounds [100005 x i8], [100005 x i8]* %1, i64 0, i64 0
  %17 = call i64 @strlen(i8* %16) #3
  %18 = trunc i64 %17 to i32
  store i32 %18, i32* %7, align 4
  store i32 0, i32* %6, align 4
  %19 = getelementptr inbounds [100005 x i8], [100005 x i8]* %1, i64 0, i64 0
  store i8* %19, i8** %2, align 8
  br label %20

20:                                               ; preds = %79, %13
  %21 = load i8*, i8** %2, align 8
  %22 = getelementptr inbounds [100005 x i8], [100005 x i8]* %1, i64 0, i64 0
  %23 = load i32, i32* %7, align 4
  %24 = sext i32 %23 to i64
  %25 = getelementptr inbounds i8, i8* %22, i64 %24
  %26 = icmp ult i8* %21, %25
  br i1 %26, label %27, label %30

27:                                               ; preds = %20
  %28 = load i32, i32* %6, align 4
  %29 = icmp eq i32 %28, 0
  br label %30

30:                                               ; preds = %27, %20
  %31 = phi i1 [ false, %20 ], [ %29, %27 ]
  br i1 %31, label %32, label %82

32:                                               ; preds = %30
  store i32 1, i32* %6, align 4
  %33 = load i8*, i8** %2, align 8
  %34 = load i8, i8* %33, align 1
  %35 = sext i8 %34 to i32
  %36 = icmp ne i32 %35, 48
  br i1 %36, label %37, label %77

37:                                               ; preds = %32
  %38 = load i8*, i8** %2, align 8
  %39 = load i8, i8* %38, align 1
  %40 = sext i8 %39 to i32
  %41 = icmp ne i32 %40, 0
  br i1 %41, label %42, label %77

42:                                               ; preds = %37
  %43 = load i8*, i8** %2, align 8
  %44 = getelementptr inbounds i8, i8* %43, i64 1
  store i8* %44, i8** %3, align 8
  br label %45

45:                                               ; preds = %67, %42
  %46 = load i8*, i8** %3, align 8
  %47 = getelementptr inbounds [100005 x i8], [100005 x i8]* %1, i64 0, i64 0
  %48 = load i32, i32* %7, align 4
  %49 = sext i32 %48 to i64
  %50 = getelementptr inbounds i8, i8* %47, i64 %49
  %51 = icmp ult i8* %46, %50
  br i1 %51, label %52, label %68

52:                                               ; preds = %45
  %53 = load i8*, i8** %3, align 8
  %54 = load i8, i8* %53, align 1
  %55 = sext i8 %54 to i32
  %56 = load i8*, i8** %2, align 8
  %57 = load i8, i8* %56, align 1
  %58 = sext i8 %57 to i32
  %59 = icmp ne i32 %55, %58
  br i1 %59, label %60, label %63

60:                                               ; preds = %52
  %61 = load i8*, i8** %3, align 8
  %62 = getelementptr inbounds i8, i8* %61, i32 1
  store i8* %62, i8** %3, align 8
  br label %67

63:                                               ; preds = %52
  %64 = load i8*, i8** %3, align 8
  store i8 48, i8* %64, align 1
  store i32 0, i32* %6, align 4
  %65 = load i8*, i8** %3, align 8
  %66 = getelementptr inbounds i8, i8* %65, i32 1
  store i8* %66, i8** %3, align 8
  br label %67

67:                                               ; preds = %63, %60
  br label %45

68:                                               ; preds = %45
  %69 = load i32, i32* %6, align 4
  %70 = icmp ne i32 %69, 0
  br i1 %70, label %71, label %76

71:                                               ; preds = %68
  %72 = load i8*, i8** %2, align 8
  %73 = load i8, i8* %72, align 1
  %74 = sext i8 %73 to i32
  %75 = call i32 (i8*, ...) @printf(i8* getelementptr inbounds ([4 x i8], [4 x i8]* @.str.1, i64 0, i64 0), i32 %74)
  br label %76

76:                                               ; preds = %71, %68
  br label %78

77:                                               ; preds = %37, %32
  store i32 0, i32* %6, align 4
  br label %78

78:                                               ; preds = %77, %76
  br label %79

79:                                               ; preds = %78
  %80 = load i8*, i8** %2, align 8
  %81 = getelementptr inbounds i8, i8* %80, i32 1
  store i8* %81, i8** %2, align 8
  br label %20

82:                                               ; preds = %30
  br label %83

83:                                               ; preds = %82
  %84 = load i32, i32* %5, align 4
  %85 = add nsw i32 %84, 1
  store i32 %85, i32* %5, align 4
  br label %9

86:                                               ; preds = %9
  %87 = load i32, i32* %6, align 4
  %88 = icmp eq i32 %87, 0
  br i1 %88, label %89, label %91

89:                                               ; preds = %86
  %90 = call i32 (i8*, ...) @printf(i8* getelementptr inbounds ([3 x i8], [3 x i8]* @.str.2, i64 0, i64 0))
  br label %91

91:                                               ; preds = %89, %86
  ret void
}

declare dso_local i32 @__isoc99_scanf(i8*, ...) #1

declare dso_local i32 @gets(...) #1

; Function Attrs: nounwind readonly
declare dso_local i64 @strlen(i8*) #2

declare dso_local i32 @printf(i8*, ...) #1


!llvm.module.flags = !{!0}
!llvm.ident = !{!1}

!0 = !{i32 1, !"wchar_size", i32 4}
!1 = !{!"clang version 10.0.0-4ubuntu1 "}
